; Function Attrs: mustprogress nofree norecurse nosync nounwind willreturn memory(read, inaccessiblemem: none) uwtable
define noundef i64 @_ZNK4pugi13xml_attribute8as_llongEx(ptr nocapture noundef nonnull readonly align 8 dereferenceable(8) %this, i64 noundef %def) local_unnamed_addr #9 align 2 {
entry:
  %0 = load ptr, ptr %this, align 8
  %tobool.not = icmp eq ptr %0, null
  br i1 %tobool.not, label %return, label %if.end

if.end:                                           ; preds = %entry
  %value3 = getelementptr inbounds i8, ptr %0, i64 16
  %1 = load ptr, ptr %value3, align 8
  %tobool4.not = icmp eq ptr %1, null
  br i1 %tobool4.not, label %return, label %cond.true

cond.true:                                        ; preds = %if.end
  %call.i = tail call fastcc noundef i64 @_ZN4pugi4impl12_GLOBAL__N_117string_to_integerIyEET_PKcS3_S3_(ptr noundef nonnull %1, i64 noundef -9223372036854775808, i64 noundef 9223372036854775807)
  br label %return

return:                                           ; preds = %cond.true, %if.end, %entry
  %retval.0 = phi i64 [ %def, %entry ], [ %call.i, %cond.true ], [ %def, %if.end ]
  ret i64 %retval.0
}